Certificate:
    Data:
        Version: 3 (0x2)
        Serial Number: 6 (0x6)
    Signature Algorithm: sha1WithRSAEncryption
        Issuer: C=US, ST=CA, L=Roseville, O=Hewlett-Packard Company, CN=Hewlett-Packard Private Class 2 Certification Authority
        Validity
            Not Before: Feb  2 01:25:20 2016 GMT
            Not After : Jan 30 01:25:20 2026 GMT
        Subject: C=US, ST=CA, L=Roseville, O=Hewlett-Packard Company, CN=atcswa-cr-propel.ecs-core.ssn.hp.com
        Subject Public Key Info:
            Public Key Algorithm: rsaEncryption
                Public-Key: (2048 bit)
                Modulus:
                    00:d2:36:18:91:03:cf:38:06:67:d8:8c:9d:bb:12:
                    87:84:3b:a6:0c:ac:3b:a9:e9:de:d3:df:91:1d:75:
                    a3:cc:4f:8d:a3:b8:ba:ab:8c:8a:0e:9e:9a:12:11:
                    52:e5:66:d9:55:83:bc:19:71:30:95:a0:0d:31:e6:
                    e5:24:9b:7a:13:1a:2f:59:d6:08:f8:fe:4c:f1:b5:
                    32:d0:0d:c5:66:3b:98:b9:16:ad:4a:53:3d:36:44:
                    9e:4a:e6:bd:b2:30:6e:af:d4:d3:9b:2a:7d:59:cb:
                    f6:52:14:aa:5f:59:c3:f7:8c:fc:af:f6:a9:46:5f:
                    69:8e:26:65:7c:dd:d6:8b:f3:d1:3b:95:11:94:bf:
                    f4:b0:2a:84:29:e4:1f:67:e1:f1:13:b5:34:55:50:
                    f9:d9:a0:dc:24:75:79:3d:db:97:ba:45:07:0e:62:
                    a1:ed:3b:62:9d:5e:62:29:cc:4e:ba:fd:d2:96:b3:
                    d4:4b:d4:6f:07:5b:68:e4:bb:c9:0d:bf:b0:95:70:
                    fb:26:74:14:fe:e3:52:4b:99:5a:a6:07:dc:d8:72:
                    88:83:d4:50:08:05:76:d2:55:1b:ed:d4:d1:01:a6:
                    50:f6:e7:f9:ed:46:16:53:c4:2b:54:90:6f:e0:75:
                    2f:ca:67:44:55:54:42:67:8c:20:28:10:be:2b:a7:
                    3e:29
                Exponent: 65537 (0x10001)
        X509v3 extensions:
            X509v3 Basic Constraints: 
                CA:FALSE
            X509v3 Key Usage: 
                Digital Signature, Non Repudiation, Key Encipherment
            X509v3 Subject Alternative Name: 
                DNS:atcswa-cr-propel.ecs-core.ssn.hp.com, DNS:atc-cr-emong.ecs-core.ssn.hp.com, DNS:atc-cr-propel.ecs-core.ssn.hp.com
    Signature Algorithm: sha1WithRSAEncryption
         b3:b4:8c:c8:40:59:c3:0e:7f:0a:45:13:84:5e:91:3f:a2:de:
         e3:4c:08:16:62:87:59:3e:00:47:38:5e:d9:43:bd:4c:8a:a0:
         0f:da:21:35:7f:7a:2f:77:a8:3e:fa:0e:e8:11:92:78:9c:63:
         86:76:60:ef:a6:43:b8:4b:b5:b5:ad:99:98:5b:52:19:04:29:
         1b:7e:59:18:df:77:40:0b:ed:4d:f0:b2:f5:f2:ea:61:e5:61:
         44:f1:e5:db:b7:0e:41:8a:61:e8:16:c3:7d:4f:ed:37:cd:62:
         03:53:66:ff:f7:cf:43:4d:09:ed:7e:74:45:15:fc:20:c5:a0:
         3f:3f:41:55:52:bd:f7:8d:78:27:5d:17:29:d9:27:31:ec:f9:
         c0:27:4e:57:5b:ca:b9:49:22:3f:95:ff:ee:4f:f9:de:8e:e0:
         54:0c:7d:f0:c3:d9:7c:9f:05:5c:f5:a4:92:25:04:9a:af:9e:
         86:81:3f:45:df:b1:15:86:9c:aa:a5:9f:d5:c2:52:7e:fc:ac:
         d8:35:d6:87:bb:0e:b5:d3:6b:26:d6:99:69:cb:08:bd:e2:6b:
         f6:73:64:ce:09:0e:fe:96:32:98:c1:44:2e:ee:78:5f:0a:68:
         1b:4b:37:29:03:22:70:d7:1b:36:9b:f9:b2:6b:07:7b:46:a6:
         3e:c6:6f:76
-----BEGIN CERTIFICATE-----
MIIEHzCCAwegAwIBAgIBBjANBgkqhkiG9w0BAQUFADCBkjELMAkGA1UEBhMCVVMx
CzAJBgNVBAgMAkNBMRIwEAYDVQQHDAlSb3NldmlsbGUxIDAeBgNVBAoMF0hld2xl
dHQtUGFja2FyZCBDb21wYW55MUAwPgYDVQQDDDdIZXdsZXR0LVBhY2thcmQgUHJp
dmF0ZSBDbGFzcyAyIENlcnRpZmljYXRpb24gQXV0aG9yaXR5MB4XDTE2MDIwMjAx
MjUyMFoXDTI2MDEzMDAxMjUyMFowfzELMAkGA1UEBhMCVVMxCzAJBgNVBAgMAkNB
MRIwEAYDVQQHDAlSb3NldmlsbGUxIDAeBgNVBAoMF0hld2xldHQtUGFja2FyZCBD
b21wYW55MS0wKwYDVQQDDCRhdGNzd2EtY3ItcHJvcGVsLmVjcy1jb3JlLnNzbi5o
cC5jb20wggEiMA0GCSqGSIb3DQEBAQUAA4IBDwAwggEKAoIBAQDSNhiRA884BmfY
jJ27EoeEO6YMrDup6d7T35EddaPMT42juLqrjIoOnpoSEVLlZtlVg7wZcTCVoA0x
5uUkm3oTGi9Z1gj4/kzxtTLQDcVmO5i5Fq1KUz02RJ5K5r2yMG6v1NObKn1Zy/ZS
FKpfWcP3jPyv9qlGX2mOJmV83daL89E7lRGUv/SwKoQp5B9n4fETtTRVUPnZoNwk
dXk925e6RQcOYqHtO2KdXmIpzE66/dKWs9RL1G8HW2jku8kNv7CVcPsmdBT+41JL
mVqmB9zYcoiD1FAIBXbSVRvt1NEBplD25/ntRhZTxCtUkG/gdS/KZ0RVVEJnjCAo
EL4rpz4pAgMBAAGjgZEwgY4wCQYDVR0TBAIwADALBgNVHQ8EBAMCBeAwdAYDVR0R
BG0wa4IkYXRjc3dhLWNyLXByb3BlbC5lY3MtY29yZS5zc24uaHAuY29tgiBhdGMt
Y3ItZW1vbmcuZWNzLWNvcmUuc3NuLmhwLmNvbYIhYXRjLWNyLXByb3BlbC5lY3Mt
Y29yZS5zc24uaHAuY29tMA0GCSqGSIb3DQEBBQUAA4IBAQCztIzIQFnDDn8KRROE
XpE/ot7jTAgWYodZPgBHOF7ZQ71MiqAP2iE1f3ovd6g++g7oEZJ4nGOGdmDvpkO4
S7W1rZmYW1IZBCkbflkY33dAC+1N8LL18uph5WFE8eXbtw5BimHoFsN9T+03zWID
U2b/989DTQntfnRFFfwgxaA/P0FVUr33jXgnXRcp2Scx7PnAJ05XW8q5SSI/lf/u
T/nejuBUDH3ww9l8nwVc9aSSJQSar56GgT9F37EVhpyqpZ/VwlJ+/KzYNdaHuw61
02sm1plpywi94mv2c2TOCQ7+ljKYwUQu7nhfCmgbSzcpAyJw1xs2m/myawd7RqY+
xm92
-----END CERTIFICATE-----
