Certificate:
    Data:
        Version: 3 (0x2)
        Serial Number: 7 (0x7)
    Signature Algorithm: sha1WithRSAEncryption
        Issuer: C=US, ST=CA, L=Roseville, O=Hewlett-Packard Company, CN=Hewlett-Packard Private Class 2 Certification Authority
        Validity
            Not Before: Feb  2 11:33:21 2016 GMT
            Not After : Dec 11 11:33:21 2025 GMT
        Subject: C=US, ST=CA, L=Roseville, O=Hewlett-Packard Company, CN=atcswa-cr-propel.mcloud.svcs.hpe.com
        Subject Public Key Info:
            Public Key Algorithm: rsaEncryption
                Public-Key: (2048 bit)
                Modulus:
                    00:b4:cd:fe:d4:50:6a:0d:27:9c:9c:0f:0b:df:6f:
                    7a:f3:4f:ce:81:79:40:51:1b:87:50:f2:c3:63:c3:
                    5f:49:42:09:fc:ff:31:a8:e4:53:12:05:74:c0:2c:
                    76:2e:b1:ad:f3:d2:62:c4:46:77:67:de:e3:a3:e1:
                    0a:d1:38:27:6d:c3:a7:d3:d8:e2:f3:7a:0a:f6:fb:
                    e8:79:4b:a2:37:b8:bf:ef:0a:d7:e0:65:b5:bc:aa:
                    fa:63:9c:ad:15:84:5b:44:9e:02:9a:75:a2:74:6c:
                    7e:7f:58:71:1d:56:c9:e3:f1:07:e0:50:53:8a:d3:
                    03:64:85:1a:94:b2:f9:c0:f4:8e:0a:34:3e:38:10:
                    4c:b4:66:3a:b4:a4:74:42:9f:01:9c:39:35:c8:6a:
                    aa:7c:48:60:cc:78:f1:78:b0:2c:96:ca:46:60:c1:
                    9d:1c:9e:1b:1f:b6:ec:ef:3e:f3:f9:3d:e7:88:db:
                    e5:09:49:82:31:d1:49:9c:be:6c:0c:34:68:4d:7b:
                    96:3c:b9:1b:12:ce:76:c3:fd:b0:f4:41:30:f7:6a:
                    fc:c6:0d:11:43:24:72:92:6d:0e:50:4b:1d:d1:52:
                    c4:f7:c0:8f:ce:1f:48:62:b2:4f:7f:b4:73:6a:c6:
                    c7:43:76:9f:6b:ae:27:2c:1a:f7:31:43:6b:58:29:
                    73:c7
                Exponent: 65537 (0x10001)
        X509v3 extensions:
            X509v3 Basic Constraints: 
                CA:FALSE
            X509v3 Key Usage: 
                Digital Signature, Non Repudiation, Key Encipherment
            X509v3 Subject Alternative Name: 
                DNS:atcswa-cr-propel.mcloud.svcs.hpe.com, DNS:atcswa-cr-atlassian.ecs-core.ssn.hp.com, DNS:atc-cr-iweb4.ecs-core.ssn.hp.com, DNS:atc-cr-iweb5.ecs-core.ssn.hp.com, DNS:atc-cr-eweb3.ecs-core.ssn.hp.com, DNS:atc-cr-eweb4.ecs-core.ssn.hp.com, DNS:swa-cr-eweb3.ecs-core.ssn.hp.com, DNS:swa-cr-eweb4.ecs-core.ssn.hp.com, DNS:atc-cr-wls3.ecs-core.ssn.hp.com, DNS:atc-cr-wls4.ecs-core.ssn.hp.com, DNS:swa-cr-wls3.ecs-core.ssn.hp.com, DNS:swa-cr-wls4.ecs-core.ssn.hp.com, DNS:atc-cr-mongodb1.ecs-core.ssn.hp.com, DNS:atc-cr-mongodb2.ecs-core.ssn.hp.com, DNS:atc-cr-mongodb3.ecs-core.ssn.hp.com, DNS:swa-cr-mongodb1.ecs-core.ssn.hp.com, DNS:swa-cr-mongodb2.ecs-core.ssn.hp.com, DNS:swa-cr-mongodb3.ecs-core.ssn.hp.com
    Signature Algorithm: sha1WithRSAEncryption
         79:34:83:c0:31:65:81:4e:38:4d:ad:09:6d:3a:1e:d9:6a:25:
         19:b0:7c:54:5c:dc:5a:d4:b6:1e:b9:f4:23:1e:a5:10:9a:b2:
         0c:99:b3:38:fe:47:89:5f:6a:4a:87:93:3c:f7:36:8b:c3:00:
         4f:09:95:4e:6e:27:21:e2:a7:cd:92:a3:9b:dd:db:db:5d:48:
         2c:99:8d:33:a3:79:b8:d8:af:fe:d0:d0:21:21:d0:4b:60:c9:
         cf:99:fc:63:e3:c3:cf:37:f3:70:31:32:d9:74:95:b2:40:5d:
         f9:4b:f4:dd:20:02:e8:27:92:d1:14:12:80:09:81:37:93:5f:
         fe:ad:3e:9b:4e:4f:63:08:6e:9a:14:26:a9:ca:3b:6a:5a:03:
         08:ac:41:cc:60:14:e7:60:5f:dd:5b:1e:77:29:68:05:9c:14:
         11:c0:cc:d4:67:12:8a:0d:5d:26:e6:62:de:d1:17:34:c8:4a:
         a2:bd:73:49:db:4d:ca:37:0f:3f:37:02:d6:40:8c:47:d1:55:
         f2:47:68:b4:45:db:dc:21:7e:38:d0:7e:83:02:08:b4:87:18:
         08:43:cf:cb:18:94:47:1e:25:84:a2:9c:46:6e:07:ef:a2:6f:
         ee:bb:5a:78:90:8f:f5:cc:f1:ae:0c:a6:b8:11:25:cb:17:08:
         9d:5c:0f:60
-----BEGIN CERTIFICATE-----
MIIGOTCCBSGgAwIBAgIBBzANBgkqhkiG9w0BAQUFADCBkjELMAkGA1UEBhMCVVMx
CzAJBgNVBAgMAkNBMRIwEAYDVQQHDAlSb3NldmlsbGUxIDAeBgNVBAoMF0hld2xl
dHQtUGFja2FyZCBDb21wYW55MUAwPgYDVQQDDDdIZXdsZXR0LVBhY2thcmQgUHJp
dmF0ZSBDbGFzcyAyIENlcnRpZmljYXRpb24gQXV0aG9yaXR5MB4XDTE2MDIwMjEx
MzMyMVoXDTI1MTIxMTExMzMyMVowfzELMAkGA1UEBhMCVVMxCzAJBgNVBAgMAkNB
MRIwEAYDVQQHDAlSb3NldmlsbGUxIDAeBgNVBAoMF0hld2xldHQtUGFja2FyZCBD
b21wYW55MS0wKwYDVQQDDCRhdGNzd2EtY3ItcHJvcGVsLm1jbG91ZC5zdmNzLmhw
ZS5jb20wggEiMA0GCSqGSIb3DQEBAQUAA4IBDwAwggEKAoIBAQC0zf7UUGoNJ5yc
Dwvfb3rzT86BeUBRG4dQ8sNjw19JQgn8/zGo5FMSBXTALHYusa3z0mLERndn3uOj
4QrROCdtw6fT2OLzegr2++h5S6I3uL/vCtfgZbW8qvpjnK0VhFtEngKadaJ0bH5/
WHEdVsnj8QfgUFOK0wNkhRqUsvnA9I4KND44EEy0Zjq0pHRCnwGcOTXIaqp8SGDM
ePF4sCyWykZgwZ0cnhsftuzvPvP5PeeI2+UJSYIx0UmcvmwMNGhNe5Y8uRsSznbD
/bD0QTD3avzGDRFDJHKSbQ5QSx3RUsT3wI/OH0hisk9/tHNqxsdDdp9rricsGvcx
Q2tYKXPHAgMBAAGjggKqMIICpjAJBgNVHRMEAjAAMAsGA1UdDwQEAwIF4DCCAooG
A1UdEQSCAoEwggJ9giRhdGNzd2EtY3ItcHJvcGVsLm1jbG91ZC5zdmNzLmhwZS5j
b22CJ2F0Y3N3YS1jci1hdGxhc3NpYW4uZWNzLWNvcmUuc3NuLmhwLmNvbYIgYXRj
LWNyLWl3ZWI0LmVjcy1jb3JlLnNzbi5ocC5jb22CIGF0Yy1jci1pd2ViNS5lY3Mt
Y29yZS5zc24uaHAuY29tgiBhdGMtY3ItZXdlYjMuZWNzLWNvcmUuc3NuLmhwLmNv
bYIgYXRjLWNyLWV3ZWI0LmVjcy1jb3JlLnNzbi5ocC5jb22CIHN3YS1jci1ld2Vi
My5lY3MtY29yZS5zc24uaHAuY29tgiBzd2EtY3ItZXdlYjQuZWNzLWNvcmUuc3Nu
LmhwLmNvbYIfYXRjLWNyLXdsczMuZWNzLWNvcmUuc3NuLmhwLmNvbYIfYXRjLWNy
LXdsczQuZWNzLWNvcmUuc3NuLmhwLmNvbYIfc3dhLWNyLXdsczMuZWNzLWNvcmUu
c3NuLmhwLmNvbYIfc3dhLWNyLXdsczQuZWNzLWNvcmUuc3NuLmhwLmNvbYIjYXRj
LWNyLW1vbmdvZGIxLmVjcy1jb3JlLnNzbi5ocC5jb22CI2F0Yy1jci1tb25nb2Ri
Mi5lY3MtY29yZS5zc24uaHAuY29tgiNhdGMtY3ItbW9uZ29kYjMuZWNzLWNvcmUu
c3NuLmhwLmNvbYIjc3dhLWNyLW1vbmdvZGIxLmVjcy1jb3JlLnNzbi5ocC5jb22C
I3N3YS1jci1tb25nb2RiMi5lY3MtY29yZS5zc24uaHAuY29tgiNzd2EtY3ItbW9u
Z29kYjMuZWNzLWNvcmUuc3NuLmhwLmNvbTANBgkqhkiG9w0BAQUFAAOCAQEAeTSD
wDFlgU44Ta0JbToe2WolGbB8VFzcWtS2Hrn0Ix6lEJqyDJmzOP5HiV9qSoeTPPc2
i8MATwmVTm4nIeKnzZKjm93b211ILJmNM6N5uNiv/tDQISHQS2DJz5n8Y+PDzzfz
cDEy2XSVskBd+Uv03SAC6CeS0RQSgAmBN5Nf/q0+m05PYwhumhQmqco7aloDCKxB
zGAU52Bf3VsedyloBZwUEcDM1GcSig1dJuZi3tEXNMhKor1zSdtNyjcPPzcC1kCM
R9FV8kdotEXb3CF+ONB+gwIItIcYCEPPyxiURx4lhKKcRm4H76Jv7rtaeJCP9czx
rgymuBElyxcInVwPYA==
-----END CERTIFICATE-----
