Certificate:
    Data:
        Version: 3 (0x2)
        Serial Number: 8 (0x8)
    Signature Algorithm: sha1WithRSAEncryption
        Issuer: C=US, ST=CA, L=Roseville, O=Hewlett-Packard Company, CN=Hewlett-Packard Private Class 2 Certification Authority
        Validity
            Not Before: Feb  4 22:50:08 2016 GMT
            Not After : Dec 13 22:50:08 2025 GMT
        Subject: C=US, ST=CA, L=Roseville, O=Hewlett-Packard Company, CN=atcswa-cr-empp.mcloud.svcs.hpe.com
        Subject Public Key Info:
            Public Key Algorithm: rsaEncryption
                Public-Key: (2048 bit)
                Modulus:
                    00:c8:25:36:4f:1f:22:0d:71:af:42:29:ac:ca:7a:
                    a5:8f:1b:93:75:c2:5d:09:03:6e:5c:a1:f0:d5:64:
                    aa:06:1c:d7:e6:cd:e2:d1:c6:ca:bd:5d:80:ac:5b:
                    88:47:a0:45:1c:b0:36:91:1c:fd:2c:df:68:98:ec:
                    9d:72:62:10:17:0c:d0:42:d0:ce:95:e7:bc:89:96:
                    64:e7:30:88:74:93:5b:53:c2:42:83:a8:05:fd:da:
                    3a:35:50:9c:b4:33:cd:c8:78:db:53:7f:4f:5b:5d:
                    ea:27:be:37:93:b7:3b:5e:d3:0b:ce:3e:01:8f:cc:
                    9b:c2:e0:04:c5:18:da:1f:93:ab:eb:48:3f:82:29:
                    ff:f9:ad:b0:91:ad:1b:17:36:a2:a9:ec:39:f3:46:
                    fe:ca:ac:56:d1:04:b1:1e:1f:f0:17:46:c7:d5:50:
                    f3:cc:48:c7:45:17:5e:4d:08:ad:cc:12:42:99:ef:
                    de:c8:a3:e4:b8:5b:64:52:76:f5:65:80:64:fc:ad:
                    62:ef:32:32:c9:7f:24:0c:9e:e6:da:e5:d6:1f:7d:
                    85:d6:06:ac:be:a6:ec:8b:d1:75:eb:c2:69:33:50:
                    ba:21:9e:0a:98:63:d2:94:64:ab:a6:22:71:8e:75:
                    10:02:2e:a5:56:d8:79:8c:63:fc:f1:42:af:c8:ab:
                    5c:91
                Exponent: 65537 (0x10001)
        X509v3 extensions:
            X509v3 Basic Constraints: 
                CA:FALSE
            X509v3 Key Usage: 
                Digital Signature, Non Repudiation, Key Encipherment
            X509v3 Subject Alternative Name: 
                DNS:atcswa-cr-empp.mcloud.svcs.hpe.com, DNS:atcswa-cr-atlassian.ecs-core.ssn.hp.com, DNS:atc-cr-iweb4.ecs-core.ssn.hp.com, DNS:atc-cr-iweb5.ecs-core.ssn.hp.com, DNS:atc-cr-eweb3.ecs-core.ssn.hp.com, DNS:atc-cr-eweb4.ecs-core.ssn.hp.com, DNS:swa-cr-eweb3.ecs-core.ssn.hp.com, DNS:swa-cr-eweb4.ecs-core.ssn.hp.com, DNS:atc-cr-wls3.ecs-core.ssn.hp.com, DNS:atc-cr-wls4.ecs-core.ssn.hp.com, DNS:swa-cr-wls3.ecs-core.ssn.hp.com, DNS:swa-cr-wls4.ecs-core.ssn.hp.com, DNS:atc-cr-mongodb1.ecs-core.ssn.hp.com, DNS:atc-cr-mongodb2.ecs-core.ssn.hp.com, DNS:atc-cr-mongodb3.ecs-core.ssn.hp.com, DNS:swa-cr-mongodb1.ecs-core.ssn.hp.com, DNS:swa-cr-mongodb2.ecs-core.ssn.hp.com, DNS:swa-cr-mongodb3.ecs-core.ssn.hp.com
    Signature Algorithm: sha1WithRSAEncryption
         b7:d1:c9:95:77:4a:b3:3c:1d:dc:b4:d1:c0:f3:d2:8b:d8:c6:
         3e:57:91:8b:bc:c7:97:7f:90:11:da:7a:aa:67:ee:64:df:c8:
         9a:e1:0d:ba:4c:ff:6f:ea:8a:50:68:15:39:d3:5d:c0:84:af:
         e6:91:4c:66:96:46:bd:0d:25:4e:72:27:d6:3a:4d:a9:ba:85:
         9f:5c:86:e5:10:67:92:4b:46:7f:45:13:7e:f9:dd:93:30:f1:
         bd:6b:93:93:4b:d2:ec:2f:bd:f5:35:41:fa:5b:1d:69:78:1a:
         76:e7:62:96:b6:38:07:96:8d:e2:a0:42:4d:88:f1:29:cf:c1:
         2f:b5:98:47:d9:a5:cc:59:e1:d0:3d:46:fb:e5:de:a0:e6:a5:
         f1:e9:ff:f3:29:09:c3:13:a9:d4:ee:e8:c8:5a:f5:54:3d:bf:
         e3:1d:11:ae:97:13:57:5f:ad:cb:55:58:22:b5:cb:1a:f5:eb:
         82:6e:c8:bf:35:6c:1d:8c:be:d6:6b:46:d6:e7:79:68:85:57:
         cb:a7:6e:d5:72:23:96:bb:9f:c2:2a:75:35:dc:58:a8:39:a0:
         9f:b1:4f:ac:be:c5:a1:5b:72:e1:c2:8f:50:85:b8:76:04:97:
         d4:76:99:8f:b8:82:d3:0d:a0:1c:ae:c8:54:f9:df:3b:5c:84:
         f5:84:34:21
-----BEGIN CERTIFICATE-----
MIIGNTCCBR2gAwIBAgIBCDANBgkqhkiG9w0BAQUFADCBkjELMAkGA1UEBhMCVVMx
CzAJBgNVBAgMAkNBMRIwEAYDVQQHDAlSb3NldmlsbGUxIDAeBgNVBAoMF0hld2xl
dHQtUGFja2FyZCBDb21wYW55MUAwPgYDVQQDDDdIZXdsZXR0LVBhY2thcmQgUHJp
dmF0ZSBDbGFzcyAyIENlcnRpZmljYXRpb24gQXV0aG9yaXR5MB4XDTE2MDIwNDIy
NTAwOFoXDTI1MTIxMzIyNTAwOFowfTELMAkGA1UEBhMCVVMxCzAJBgNVBAgMAkNB
MRIwEAYDVQQHDAlSb3NldmlsbGUxIDAeBgNVBAoMF0hld2xldHQtUGFja2FyZCBD
b21wYW55MSswKQYDVQQDDCJhdGNzd2EtY3ItZW1wcC5tY2xvdWQuc3Zjcy5ocGUu
Y29tMIIBIjANBgkqhkiG9w0BAQEFAAOCAQ8AMIIBCgKCAQEAyCU2Tx8iDXGvQims
ynqljxuTdcJdCQNuXKHw1WSqBhzX5s3i0cbKvV2ArFuIR6BFHLA2kRz9LN9omOyd
cmIQFwzQQtDOlee8iZZk5zCIdJNbU8JCg6gF/do6NVCctDPNyHjbU39PW13qJ743
k7c7XtMLzj4Bj8ybwuAExRjaH5Or60g/gin/+a2wka0bFzaiqew580b+yqxW0QSx
Hh/wF0bH1VDzzEjHRRdeTQitzBJCme/eyKPkuFtkUnb1ZYBk/K1i7zIyyX8kDJ7m
2uXWH32F1gasvqbsi9F168JpM1C6IZ4KmGPSlGSrpiJxjnUQAi6lVth5jGP88UKv
yKtckQIDAQABo4ICqDCCAqQwCQYDVR0TBAIwADALBgNVHQ8EBAMCBeAwggKIBgNV
HREEggJ/MIICe4IiYXRjc3dhLWNyLWVtcHAubWNsb3VkLnN2Y3MuaHBlLmNvbYIn
YXRjc3dhLWNyLWF0bGFzc2lhbi5lY3MtY29yZS5zc24uaHAuY29tgiBhdGMtY3It
aXdlYjQuZWNzLWNvcmUuc3NuLmhwLmNvbYIgYXRjLWNyLWl3ZWI1LmVjcy1jb3Jl
LnNzbi5ocC5jb22CIGF0Yy1jci1ld2ViMy5lY3MtY29yZS5zc24uaHAuY29tgiBh
dGMtY3ItZXdlYjQuZWNzLWNvcmUuc3NuLmhwLmNvbYIgc3dhLWNyLWV3ZWIzLmVj
cy1jb3JlLnNzbi5ocC5jb22CIHN3YS1jci1ld2ViNC5lY3MtY29yZS5zc24uaHAu
Y29tgh9hdGMtY3Itd2xzMy5lY3MtY29yZS5zc24uaHAuY29tgh9hdGMtY3Itd2xz
NC5lY3MtY29yZS5zc24uaHAuY29tgh9zd2EtY3Itd2xzMy5lY3MtY29yZS5zc24u
aHAuY29tgh9zd2EtY3Itd2xzNC5lY3MtY29yZS5zc24uaHAuY29tgiNhdGMtY3It
bW9uZ29kYjEuZWNzLWNvcmUuc3NuLmhwLmNvbYIjYXRjLWNyLW1vbmdvZGIyLmVj
cy1jb3JlLnNzbi5ocC5jb22CI2F0Yy1jci1tb25nb2RiMy5lY3MtY29yZS5zc24u
aHAuY29tgiNzd2EtY3ItbW9uZ29kYjEuZWNzLWNvcmUuc3NuLmhwLmNvbYIjc3dh
LWNyLW1vbmdvZGIyLmVjcy1jb3JlLnNzbi5ocC5jb22CI3N3YS1jci1tb25nb2Ri
My5lY3MtY29yZS5zc24uaHAuY29tMA0GCSqGSIb3DQEBBQUAA4IBAQC30cmVd0qz
PB3ctNHA89KL2MY+V5GLvMeXf5AR2nqqZ+5k38ia4Q26TP9v6opQaBU5013AhK/m
kUxmlka9DSVOcifWOk2puoWfXIblEGeSS0Z/RRN++d2TMPG9a5OTS9LsL731NUH6
Wx1peBp252KWtjgHlo3ioEJNiPEpz8EvtZhH2aXMWeHQPUb75d6g5qXx6f/zKQnD
E6nU7ujIWvVUPb/jHRGulxNXX63LVVgitcsa9euCbsi/NWwdjL7Wa0bW53lohVfL
p27VciOWu5/CKnU13FioOaCfsU+svsWhW3Lhwo9Qhbh2BJfUdpmPuILTDaAcrshU
+d87XIT1hDQh
-----END CERTIFICATE-----
