Certificate:
    Data:
        Version: 3 (0x2)
        Serial Number: 2 (0x2)
    Signature Algorithm: sha1WithRSAEncryption
        Issuer: C=US, ST=CA, L=Roseville, O=Hewlett-Packard Company, CN=Hewlett-Packard Private Class 2 Certification Authority
        Validity
            Not Before: Jan 31 15:21:22 2016 GMT
            Not After : Jan 30 15:21:22 2017 GMT
        Subject: C=US, ST=CA, L=Roseville, O=Hewlett-Packard Company, CN=propel-ha-1.hp.com
        Subject Public Key Info:
            Public Key Algorithm: rsaEncryption
                Public-Key: (2048 bit)
                Modulus:
                    00:f7:21:93:d8:a4:9b:e1:d2:c4:80:d8:21:2b:f8:
                    ea:6d:d9:fb:c8:c2:0c:c2:43:ca:1b:28:0a:57:b2:
                    66:d6:7c:3c:86:9f:3f:f9:a7:14:6f:3a:9c:24:9e:
                    6e:3c:98:47:b8:0f:a5:41:86:98:6b:a5:98:7e:57:
                    54:d5:b5:1b:00:b9:6a:3b:b5:7c:84:33:30:e9:a3:
                    0c:15:23:41:52:f6:eb:51:2e:ff:24:33:16:5b:4d:
                    0c:3b:8e:fd:fa:34:d8:0b:bc:dc:06:3c:2a:aa:68:
                    29:4b:3b:65:43:46:de:f1:69:a0:fc:2c:9c:1d:ad:
                    02:8f:c8:76:1c:48:9e:f9:e5:e8:fe:3e:10:c1:70:
                    b9:09:5b:36:0a:1b:0b:a9:cd:78:ed:9b:5b:f2:79:
                    99:6e:18:45:3f:9a:fa:a2:81:fc:84:2b:46:a7:4d:
                    f1:8c:8f:ad:82:69:05:a4:76:7a:8d:74:02:5f:20:
                    04:8e:f7:17:11:ac:10:6a:0f:7f:da:5f:b6:a0:72:
                    b8:c2:97:43:8f:42:b9:56:9b:bb:77:3b:b3:fd:d2:
                    72:63:a9:c4:04:ca:0a:b8:ab:14:d9:05:bf:c5:9b:
                    66:b4:66:ee:1d:0e:0d:2d:28:9a:d2:d6:bd:93:87:
                    12:c2:14:78:f7:bb:81:13:ea:d9:0f:16:86:54:d3:
                    88:f5
                Exponent: 65537 (0x10001)
        X509v3 extensions:
            X509v3 Basic Constraints: 
                CA:FALSE
            X509v3 Key Usage: 
                Digital Signature, Non Repudiation, Key Encipherment
            X509v3 Subject Alternative Name: 
                DNS:propel-ha-1.hp.com, DNS:propel-ha-2.hp.com, DNS:propel-ha-3.hp.com, DNS:propel-ha-4.hp.com, DNS:propel-ha-5.hp.com, DNS:propel-ha-6.hp.com, DNS:propel-ha-7.hp.com, DNS:propel-ha-8.hp.com, DNS:propel-ha-9.hp.com, DNS:nginxvip.hp.com
    Signature Algorithm: sha1WithRSAEncryption
         cb:4a:95:77:5f:67:68:e4:b5:b4:00:8c:cf:90:69:ae:52:fb:
         4d:09:ba:24:f0:7d:3a:55:72:da:8e:96:b5:11:fe:43:f7:a4:
         a0:22:fe:30:ec:80:60:8d:4b:57:d9:4d:49:df:83:83:d3:16:
         ae:78:83:24:83:34:c4:28:41:8d:1a:5f:5b:24:a9:af:0f:48:
         2f:9a:d3:f6:0e:3b:91:a0:e3:b9:37:80:6f:85:56:b5:3b:e0:
         a4:bc:a3:81:3d:21:fd:a1:ab:ad:e4:28:23:82:3e:1c:3b:0b:
         66:5d:d6:80:40:0d:77:87:6d:68:62:7b:7d:7e:b1:81:b8:cf:
         5d:14:5c:22:0f:3d:86:86:e1:9e:ba:0c:59:47:b5:4c:a8:f3:
         36:ac:c6:4f:45:bc:f9:4e:ca:a6:d2:67:17:ab:08:2a:49:e2:
         76:63:76:b4:76:5b:cb:2f:4b:3f:85:d6:e9:a9:4e:0e:0a:09:
         f6:9a:ed:14:e8:d7:62:fc:f0:fa:e4:20:35:4f:25:29:a4:73:
         17:43:da:5d:a9:6a:65:0e:53:64:93:d3:06:08:e9:4a:86:46:
         3d:f9:49:fc:94:af:12:55:c6:fa:3e:00:11:20:80:90:f6:0f:
         21:ad:51:97:d0:d5:b7:0d:d4:b7:97:62:6e:1e:db:f6:ad:6b:
         b5:b9:0f:3b
-----BEGIN CERTIFICATE-----
MIIEajCCA1KgAwIBAgIBAjANBgkqhkiG9w0BAQUFADCBkjELMAkGA1UEBhMCVVMx
CzAJBgNVBAgMAkNBMRIwEAYDVQQHDAlSb3NldmlsbGUxIDAeBgNVBAoMF0hld2xl
dHQtUGFja2FyZCBDb21wYW55MUAwPgYDVQQDDDdIZXdsZXR0LVBhY2thcmQgUHJp
dmF0ZSBDbGFzcyAyIENlcnRpZmljYXRpb24gQXV0aG9yaXR5MB4XDTE2MDEzMTE1
MjEyMloXDTE3MDEzMDE1MjEyMlowbTELMAkGA1UEBhMCVVMxCzAJBgNVBAgMAkNB
MRIwEAYDVQQHDAlSb3NldmlsbGUxIDAeBgNVBAoMF0hld2xldHQtUGFja2FyZCBD
b21wYW55MRswGQYDVQQDDBJwcm9wZWwtaGEtMS5ocC5jb20wggEiMA0GCSqGSIb3
DQEBAQUAA4IBDwAwggEKAoIBAQD3IZPYpJvh0sSA2CEr+Opt2fvIwgzCQ8obKApX
smbWfDyGnz/5pxRvOpwknm48mEe4D6VBhphrpZh+V1TVtRsAuWo7tXyEMzDpowwV
I0FS9utRLv8kMxZbTQw7jv36NNgLvNwGPCqqaClLO2VDRt7xaaD8LJwdrQKPyHYc
SJ755ej+PhDBcLkJWzYKGwupzXjtm1vyeZluGEU/mvqigfyEK0anTfGMj62CaQWk
dnqNdAJfIASO9xcRrBBqD3/aX7agcrjCl0OPQrlWm7t3O7P90nJjqcQEygq4qxTZ
Bb/Fm2a0Zu4dDg0tKJrS1r2ThxLCFHj3u4ET6tkPFoZU04j1AgMBAAGjge4wgesw
CQYDVR0TBAIwADALBgNVHQ8EBAMCBeAwgdAGA1UdEQSByDCBxYIScHJvcGVsLWhh
LTEuaHAuY29tghJwcm9wZWwtaGEtMi5ocC5jb22CEnByb3BlbC1oYS0zLmhwLmNv
bYIScHJvcGVsLWhhLTQuaHAuY29tghJwcm9wZWwtaGEtNS5ocC5jb22CEnByb3Bl
bC1oYS02LmhwLmNvbYIScHJvcGVsLWhhLTcuaHAuY29tghJwcm9wZWwtaGEtOC5o
cC5jb22CEnByb3BlbC1oYS05LmhwLmNvbYIPbmdpbnh2aXAuaHAuY29tMA0GCSqG
SIb3DQEBBQUAA4IBAQDLSpV3X2do5LW0AIzPkGmuUvtNCbok8H06VXLajpa1Ef5D
96SgIv4w7IBgjUtX2U1J34OD0xaueIMkgzTEKEGNGl9bJKmvD0gvmtP2DjuRoOO5
N4BvhVa1O+CkvKOBPSH9oaut5Cgjgj4cOwtmXdaAQA13h21oYnt9frGBuM9dFFwi
Dz2GhuGeugxZR7VMqPM2rMZPRbz5Tsqm0mcXqwgqSeJ2Y3a0dlvLL0s/hdbpqU4O
Cgn2mu0U6Ndi/PD65CA1TyUppHMXQ9pdqWplDlNkk9MGCOlKhkY9+Un8lK8SVcb6
PgARIICQ9g8hrVGX0NW3DdS3l2JuHtv2rWu1uQ87
-----END CERTIFICATE-----
